# SymbolsHelper-Confirmed: 5.9.0+git20150516.0223 amd64 i386
imgurplugin.so libkf5purpose5 #MINVER#
 _ZN11ImgurPlugin11qt_metacallEN11QMetaObject4CallEiPPv@Base 5.9.0+git20150515.1342
 _ZN11ImgurPlugin11qt_metacastEPKc@Base 5.9.0+git20150515.1342
 _ZN11ImgurPlugin16staticMetaObjectE@Base 5.9.0+git20150515.1342
 _ZN11ImgurPluginD0Ev@Base 5.9.0+git20150515.1342
 _ZN11ImgurPluginD1Ev@Base 5.9.0+git20150515.1342
 _ZN11ImgurPluginD2Ev@Base 5.9.0+git20150515.1342
 _ZN14KPluginFactory14createInstanceI11ImgurPlugin7QObjectEEPS2_P7QWidgetS3_RK5QListI8QVariantE@Base 5.9.0+git20150515.1342
 _ZNK11ImgurPlugin10metaObjectEv@Base 5.9.0+git20150515.1342
 _ZTI11ImgurPlugin@Base 5.9.0+git20150515.1342
 _ZTS11ImgurPlugin@Base 5.9.0+git20150515.1342
 _ZTV11ImgurPlugin@Base 5.9.0+git20150515.1342
 kde_plugin_version@Base 5.9.0+git20150515.1342
 qt_plugin_instance@Base 5.9.0+git20150515.1342
 qt_plugin_query_metadata@Base 5.9.0+git20150515.1342
kdeconnectplugin.so libkf5purpose5 #MINVER#
 _ZN14KPluginFactory14createInstanceI17KTpSendFilePlugin7QObjectEEPS2_P7QWidgetS3_RK5QListI8QVariantE@Base 5.9.0+git20150515.1342
 _ZN17KTpSendFilePlugin11qt_metacallEN11QMetaObject4CallEiPPv@Base 5.9.0+git20150515.1342
 _ZN17KTpSendFilePlugin11qt_metacastEPKc@Base 5.9.0+git20150515.1342
 _ZN17KTpSendFilePlugin16staticMetaObjectE@Base 5.9.0+git20150515.1342
 _ZN17KTpSendFilePluginD0Ev@Base 5.9.0+git20150515.1342
 _ZN17KTpSendFilePluginD1Ev@Base 5.9.0+git20150515.1342
 _ZN17KTpSendFilePluginD2Ev@Base 5.9.0+git20150515.1342
 _ZNK17KTpSendFilePlugin10metaObjectEv@Base 5.9.0+git20150515.1342
 _ZTI17KTpSendFilePlugin@Base 5.9.0+git20150515.1342
 _ZTS17KTpSendFilePlugin@Base 5.9.0+git20150515.1342
 _ZTV17KTpSendFilePlugin@Base 5.9.0+git20150515.1342
 kde_plugin_version@Base 5.9.0+git20150515.1342
 qt_plugin_instance@Base 5.9.0+git20150515.1342
 qt_plugin_query_metadata@Base 5.9.0+git20150515.1342
ktpsendfileplugin.so libkf5purpose5 #MINVER#
 _ZN14KPluginFactory14createInstanceI17KTpSendFilePlugin7QObjectEEPS2_P7QWidgetS3_RK5QListI8QVariantE@Base 5.9.0+git20150515.1342
 _ZN17KTpSendFilePlugin11qt_metacallEN11QMetaObject4CallEiPPv@Base 5.9.0+git20150515.1342
 _ZN17KTpSendFilePlugin11qt_metacastEPKc@Base 5.9.0+git20150515.1342
 _ZN17KTpSendFilePlugin16staticMetaObjectE@Base 5.9.0+git20150515.1342
 _ZN17KTpSendFilePluginD0Ev@Base 5.9.0+git20150515.1342
 _ZN17KTpSendFilePluginD1Ev@Base 5.9.0+git20150515.1342
 _ZN17KTpSendFilePluginD2Ev@Base 5.9.0+git20150515.1342
 _ZNK17KTpSendFilePlugin10metaObjectEv@Base 5.9.0+git20150515.1342
 _ZTI17KTpSendFilePlugin@Base 5.9.0+git20150515.1342
 _ZTS17KTpSendFilePlugin@Base 5.9.0+git20150515.1342
 _ZTV17KTpSendFilePlugin@Base 5.9.0+git20150515.1342
 kde_plugin_version@Base 5.9.0+git20150515.1342
 qt_plugin_instance@Base 5.9.0+git20150515.1342
 qt_plugin_query_metadata@Base 5.9.0+git20150515.1342
libKF5Purpose.so.5 libkf5purpose5 #MINVER#
 _ZN7Purpose10PluginBase11qt_metacallEN11QMetaObject4CallEiPPv@Base 5.9.0
 _ZN7Purpose10PluginBase11qt_metacastEPKc@Base 5.9.0
 _ZN7Purpose10PluginBase16staticMetaObjectE@Base 5.9.0
 _ZN7Purpose10PluginBaseC1EP7QObject@Base 5.9.0
 _ZN7Purpose10PluginBaseC2EP7QObject@Base 5.9.0
 _ZN7Purpose10PluginBaseD0Ev@Base 5.9.0
 _ZN7Purpose10PluginBaseD1Ev@Base 5.9.0
 _ZN7Purpose10PluginBaseD2Ev@Base 5.9.0
 _ZN7Purpose13Configuration11dataChangedEv@Base 5.9.0+git20150516.0223
 _ZN7Purpose13Configuration11qt_metacallEN11QMetaObject4CallEiPPv@Base 5.9.0+git20150516.0223
 _ZN7Purpose13Configuration11qt_metacastEPKc@Base 5.9.0+git20150516.0223
 _ZN7Purpose13Configuration16staticMetaObjectE@Base 5.9.0+git20150516.0223
 _ZN7Purpose13Configuration7setDataERK11QJsonObject@Base 5.9.0+git20150516.0223
 _ZN7Purpose13Configuration9createJobEv@Base 5.9.0+git20150516.0223
 _ZN7Purpose13ConfigurationC1ERK11QJsonObjectS3_RK15KPluginMetaDataP7QObject@Base 5.9.0+git20150516.0223
 _ZN7Purpose13ConfigurationC2ERK11QJsonObjectS3_RK15KPluginMetaDataP7QObject@Base 5.9.0+git20150516.0223
 _ZN7Purpose13ConfigurationD0Ev@Base 5.9.0+git20150516.0223
 _ZN7Purpose13ConfigurationD1Ev@Base 5.9.0+git20150516.0223
 _ZN7Purpose13ConfigurationD2Ev@Base 5.9.0+git20150516.0223
 _ZN7Purpose17AlternativesModel11qt_metacallEN11QMetaObject4CallEiPPv@Base 5.9.0
 _ZN7Purpose17AlternativesModel11qt_metacastEPKc@Base 5.9.0
 _ZN7Purpose17AlternativesModel12configureJobEi@Base 5.9.0+git20150516.0223
 _ZN7Purpose17AlternativesModel12setInputDataERK11QJsonObject@Base 5.9.0
 _ZN7Purpose17AlternativesModel13setPluginTypeERK7QString@Base 5.9.0
 _ZN7Purpose17AlternativesModel15initializeModelEv@Base 5.9.0
 _ZN7Purpose17AlternativesModel16inputDataChangedEv@Base 5.9.0
 _ZN7Purpose17AlternativesModel16staticMetaObjectE@Base 5.9.0
 _ZN7Purpose17AlternativesModel17pluginTypeChangedEv@Base 5.9.0
 _ZN7Purpose17AlternativesModelC1EP7QObject@Base 5.9.0
 _ZN7Purpose17AlternativesModelC2EP7QObject@Base 5.9.0
 _ZN7Purpose17AlternativesModelD0Ev@Base 5.9.0
 _ZN7Purpose17AlternativesModelD1Ev@Base 5.9.0
 _ZN7Purpose17AlternativesModelD2Ev@Base 5.9.0
 _ZN7Purpose3Job11dataChangedEv@Base 5.9.0
 _ZN7Purpose3Job11qt_metacallEN11QMetaObject4CallEiPPv@Base 5.9.0
 _ZN7Purpose3Job11qt_metacastEPKc@Base 5.9.0
 _ZN7Purpose3Job16staticMetaObjectE@Base 5.9.0
 _ZN7Purpose3Job6outputERK11QJsonObject@Base 5.9.0
 _ZN7Purpose3Job7setDataERK11QJsonObject@Base 5.9.0
 _ZN7Purpose3JobC1EP7QObject@Base 5.9.0
 _ZN7Purpose3JobC2EP7QObject@Base 5.9.0
 _ZN7Purpose3JobD0Ev@Base 5.9.0
 _ZN7Purpose3JobD1Ev@Base 5.9.0
 _ZN7Purpose3JobD2Ev@Base 5.9.0
 _ZNK7Purpose10PluginBase10metaObjectEv@Base 5.9.0
 _ZNK7Purpose13Configuration10metaObjectEv@Base 5.9.0+git20150516.0223
 _ZNK7Purpose13Configuration15neededArgumentsEv@Base 5.9.0+git20150516.0223
 _ZNK7Purpose13Configuration16configSourceCodeEv@Base 5.9.0+git20150516.0223
 _ZNK7Purpose13Configuration4dataEv@Base 5.9.0+git20150516.0223
 _ZNK7Purpose13Configuration7isReadyEv@Base 5.9.0+git20150516.0223
 _ZNK7Purpose17AlternativesModel10metaObjectEv@Base 5.9.0
 _ZNK7Purpose17AlternativesModel10pluginTypeEv@Base 5.9.0
 _ZNK7Purpose17AlternativesModel4dataERK11QModelIndexi@Base 5.9.0
 _ZNK7Purpose17AlternativesModel8rowCountERK11QModelIndex@Base 5.9.0
 _ZNK7Purpose17AlternativesModel9inputDataEv@Base 5.9.0
 _ZNK7Purpose17AlternativesModel9roleNamesEv@Base 5.9.0
 _ZNK7Purpose3Job10metaObjectEv@Base 5.9.0
 _ZNK7Purpose3Job4dataEv@Base 5.9.0
 _ZTIN7Purpose10PluginBaseE@Base 5.9.0
 _ZTIN7Purpose13ConfigurationE@Base 5.9.0+git20150516.0223
 _ZTIN7Purpose17AlternativesModelE@Base 5.9.0
 _ZTIN7Purpose3JobE@Base 5.9.0
 _ZTSN7Purpose10PluginBaseE@Base 5.9.0
 _ZTSN7Purpose13ConfigurationE@Base 5.9.0+git20150516.0223
 _ZTSN7Purpose17AlternativesModelE@Base 5.9.0
 _ZTSN7Purpose3JobE@Base 5.9.0
 _ZTVN7Purpose10PluginBaseE@Base 5.9.0
 _ZTVN7Purpose13ConfigurationE@Base 5.9.0+git20150516.0223
 _ZTVN7Purpose17AlternativesModelE@Base 5.9.0
 _ZTVN7Purpose3JobE@Base 5.9.0
libReviewboardHelpers.so libkf5purpose5 #MINVER#
 _ZN11ReviewBoard10NewRequest11qt_metacallEN11QMetaObject4CallEiPPv@Base 5.9.0+git20150515.1342
 _ZN11ReviewBoard10NewRequest11qt_metacastEPKc@Base 5.9.0+git20150515.1342
 _ZN11ReviewBoard10NewRequest16staticMetaObjectE@Base 5.9.0+git20150515.1342
 _ZN11ReviewBoard10NewRequest4doneEv@Base 5.9.0+git20150515.1342
 _ZN11ReviewBoard10NewRequest5startEv@Base 5.9.0+git20150515.1342
 _ZN11ReviewBoard10NewRequestC1ERK4QUrlRK7QStringP7QObject@Base 5.9.0+git20150515.1342
 _ZN11ReviewBoard10NewRequestC2ERK4QUrlRK7QStringP7QObject@Base 5.9.0+git20150515.1342
 _ZN11ReviewBoard10NewRequestD0Ev@Base 5.9.0+git20150515.1342
 _ZN11ReviewBoard10NewRequestD1Ev@Base 5.9.0+git20150515.1342
 _ZN11ReviewBoard10NewRequestD2Ev@Base 5.9.0+git20150515.1342
 _ZN11ReviewBoard13ReviewRequest11qt_metacallEN11QMetaObject4CallEiPPv@Base 5.9.0+git20150515.1342
 _ZN11ReviewBoard13ReviewRequest11qt_metacastEPKc@Base 5.9.0+git20150515.1342
 _ZN11ReviewBoard13ReviewRequest16staticMetaObjectE@Base 5.9.0+git20150515.1342
 _ZN11ReviewBoard13UpdateRequest11qt_metacallEN11QMetaObject4CallEiPPv@Base 5.9.0+git20150515.1342
 _ZN11ReviewBoard13UpdateRequest11qt_metacastEPKc@Base 5.9.0+git20150515.1342
 _ZN11ReviewBoard13UpdateRequest16staticMetaObjectE@Base 5.9.0+git20150515.1342
 _ZN11ReviewBoard13UpdateRequest4doneEv@Base 5.9.0+git20150515.1342
 _ZN11ReviewBoard13UpdateRequest5startEv@Base 5.9.0+git20150515.1342
 _ZN11ReviewBoard13UpdateRequestC1ERK4QUrlRK7QStringRK4QMapIS4_8QVariantEP7QObject@Base 5.9.0+git20150515.1342
 _ZN11ReviewBoard13UpdateRequestC2ERK4QUrlRK7QStringRK4QMapIS4_8QVariantEP7QObject@Base 5.9.0+git20150515.1342
 _ZN11ReviewBoard13UpdateRequestD0Ev@Base 5.9.0+git20150515.1342
 _ZN11ReviewBoard13UpdateRequestD1Ev@Base 5.9.0+git20150515.1342
 _ZN11ReviewBoard13UpdateRequestD2Ev@Base 5.9.0+git20150515.1342
 _ZN11ReviewBoard17ReviewListRequest11qt_metacallEN11QMetaObject4CallEiPPv@Base 5.9.0+git20150515.1342
 _ZN11ReviewBoard17ReviewListRequest11qt_metacastEPKc@Base 5.9.0+git20150515.1342
 _ZN11ReviewBoard17ReviewListRequest16staticMetaObjectE@Base 5.9.0+git20150515.1342
 _ZN11ReviewBoard17ReviewListRequest17requestReviewListEi@Base 5.9.0+git20150515.1342
 _ZN11ReviewBoard17ReviewListRequest4doneEP4KJob@Base 5.9.0+git20150515.1342
 _ZN11ReviewBoard17ReviewListRequest5startEv@Base 5.9.0+git20150515.1342
 _ZN11ReviewBoard17ReviewListRequestC1ERK4QUrlRK7QStringS6_P7QObject@Base 5.9.0+git20150515.1342
 _ZN11ReviewBoard17ReviewListRequestC2ERK4QUrlRK7QStringS6_P7QObject@Base 5.9.0+git20150515.1342
 _ZN11ReviewBoard17ReviewListRequestD0Ev@Base 5.9.0+git20150515.1342
 _ZN11ReviewBoard17ReviewListRequestD1Ev@Base 5.9.0+git20150515.1342
 _ZN11ReviewBoard17ReviewListRequestD2Ev@Base 5.9.0+git20150515.1342
 _ZN11ReviewBoard18SubmitPatchRequest11qt_metacallEN11QMetaObject4CallEiPPv@Base 5.9.0+git20150515.1342
 _ZN11ReviewBoard18SubmitPatchRequest11qt_metacastEPKc@Base 5.9.0+git20150515.1342
 _ZN11ReviewBoard18SubmitPatchRequest16staticMetaObjectE@Base 5.9.0+git20150515.1342
 _ZN11ReviewBoard18SubmitPatchRequest4doneEv@Base 5.9.0+git20150515.1342
 _ZN11ReviewBoard18SubmitPatchRequest5startEv@Base 5.9.0+git20150515.1342
 _ZN11ReviewBoard18SubmitPatchRequestC1ERK4QUrlS3_RK7QStringS6_P7QObject@Base 5.9.0+git20150515.1342
 _ZN11ReviewBoard18SubmitPatchRequestC2ERK4QUrlS3_RK7QStringS6_P7QObject@Base 5.9.0+git20150515.1342
 _ZN11ReviewBoard18SubmitPatchRequestD0Ev@Base 5.9.0+git20150515.1342
 _ZN11ReviewBoard18SubmitPatchRequestD1Ev@Base 5.9.0+git20150515.1342
 _ZN11ReviewBoard18SubmitPatchRequestD2Ev@Base 5.9.0+git20150515.1342
 _ZN11ReviewBoard19ProjectsListRequest11qt_metacallEN11QMetaObject4CallEiPPv@Base 5.9.0+git20150515.1342
 _ZN11ReviewBoard19ProjectsListRequest11qt_metacastEPKc@Base 5.9.0+git20150515.1342
 _ZN11ReviewBoard19ProjectsListRequest16staticMetaObjectE@Base 5.9.0+git20150515.1342
 _ZN11ReviewBoard19ProjectsListRequest21requestRepositoryListEi@Base 5.9.0+git20150515.1342
 _ZN11ReviewBoard19ProjectsListRequest4doneEP4KJob@Base 5.9.0+git20150515.1342
 _ZN11ReviewBoard19ProjectsListRequest5startEv@Base 5.9.0+git20150515.1342
 _ZN11ReviewBoard19ProjectsListRequestC1ERK4QUrlP7QObject@Base 5.9.0+git20150515.1342
 _ZN11ReviewBoard19ProjectsListRequestC2ERK4QUrlP7QObject@Base 5.9.0+git20150515.1342
 _ZN11ReviewBoard19ProjectsListRequestD0Ev@Base 5.9.0+git20150515.1342
 _ZN11ReviewBoard19ProjectsListRequestD1Ev@Base 5.9.0+git20150515.1342
 _ZN11ReviewBoard19ProjectsListRequestD2Ev@Base 5.9.0+git20150515.1342
 _ZN11ReviewBoard8HttpCall10onFinishedEv@Base 5.9.0+git20150515.1342
 _ZN11ReviewBoard8HttpCall11qt_metacallEN11QMetaObject4CallEiPPv@Base 5.9.0+git20150515.1342
 _ZN11ReviewBoard8HttpCall11qt_metacastEPKc@Base 5.9.0+git20150515.1342
 _ZN11ReviewBoard8HttpCall16staticMetaObjectE@Base 5.9.0+git20150515.1342
 _ZN11ReviewBoard8HttpCall5startEv@Base 5.9.0+git20150515.1342
 _ZN11ReviewBoard8HttpCallC1ERK4QUrlRK7QStringRK5QListI5QPairIS4_S4_EENS0_6MethodERK10QByteArraybP7QObject@Base 5.9.0+git20150515.1342
 _ZN11ReviewBoard8HttpCallC2ERK4QUrlRK7QStringRK5QListI5QPairIS4_S4_EENS0_6MethodERK10QByteArraybP7QObject@Base 5.9.0+git20150515.1342
 _ZN11ReviewBoard8HttpCallD0Ev@Base 5.9.0+git20150515.1342
 _ZN11ReviewBoard8HttpCallD1Ev@Base 5.9.0+git20150515.1342
 _ZN11ReviewBoard8HttpCallD2Ev@Base 5.9.0+git20150515.1342
 _ZNK11ReviewBoard10NewRequest10metaObjectEv@Base 5.9.0+git20150515.1342
 _ZNK11ReviewBoard13ReviewRequest10metaObjectEv@Base 5.9.0+git20150515.1342
 _ZNK11ReviewBoard13UpdateRequest10metaObjectEv@Base 5.9.0+git20150515.1342
 _ZNK11ReviewBoard17ReviewListRequest10metaObjectEv@Base 5.9.0+git20150515.1342
 _ZNK11ReviewBoard17ReviewListRequest7reviewsEv@Base 5.9.0+git20150515.1342
 _ZNK11ReviewBoard18SubmitPatchRequest10metaObjectEv@Base 5.9.0+git20150515.1342
 _ZNK11ReviewBoard19ProjectsListRequest10metaObjectEv@Base 5.9.0+git20150515.1342
 _ZNK11ReviewBoard19ProjectsListRequest12repositoriesEv@Base 5.9.0+git20150515.1342
 _ZNK11ReviewBoard8HttpCall10metaObjectEv@Base 5.9.0+git20150515.1342
 _ZNK11ReviewBoard8HttpCall6resultEv@Base 5.9.0+git20150515.1342
 _ZTIN11ReviewBoard10NewRequestE@Base 5.9.0+git20150515.1342
 _ZTIN11ReviewBoard13ReviewRequestE@Base 5.9.0+git20150515.1342
 _ZTIN11ReviewBoard13UpdateRequestE@Base 5.9.0+git20150515.1342
 _ZTIN11ReviewBoard17ReviewListRequestE@Base 5.9.0+git20150515.1342
 _ZTIN11ReviewBoard18SubmitPatchRequestE@Base 5.9.0+git20150515.1342
 _ZTIN11ReviewBoard19ProjectsListRequestE@Base 5.9.0+git20150515.1342
 _ZTIN11ReviewBoard8HttpCallE@Base 5.9.0+git20150515.1342
 _ZTSN11ReviewBoard10NewRequestE@Base 5.9.0+git20150515.1342
 _ZTSN11ReviewBoard13ReviewRequestE@Base 5.9.0+git20150515.1342
 _ZTSN11ReviewBoard13UpdateRequestE@Base 5.9.0+git20150515.1342
 _ZTSN11ReviewBoard17ReviewListRequestE@Base 5.9.0+git20150515.1342
 _ZTSN11ReviewBoard18SubmitPatchRequestE@Base 5.9.0+git20150515.1342
 _ZTSN11ReviewBoard19ProjectsListRequestE@Base 5.9.0+git20150515.1342
 _ZTSN11ReviewBoard8HttpCallE@Base 5.9.0+git20150515.1342
 _ZTVN11ReviewBoard10NewRequestE@Base 5.9.0+git20150515.1342
 _ZTVN11ReviewBoard13ReviewRequestE@Base 5.9.0+git20150515.1342
 _ZTVN11ReviewBoard13UpdateRequestE@Base 5.9.0+git20150515.1342
 _ZTVN11ReviewBoard17ReviewListRequestE@Base 5.9.0+git20150515.1342
 _ZTVN11ReviewBoard18SubmitPatchRequestE@Base 5.9.0+git20150515.1342
 _ZTVN11ReviewBoard19ProjectsListRequestE@Base 5.9.0+git20150515.1342
 _ZTVN11ReviewBoard8HttpCallE@Base 5.9.0+git20150515.1342
pastebinplugin.so libkf5purpose5 #MINVER#
 _ZN14KPluginFactory14createInstanceI14PastebinPlugin7QObjectEEPS2_P7QWidgetS3_RK5QListI8QVariantE@Base 5.9.0+git20150515.1342
 _ZN14PastebinPlugin11qt_metacallEN11QMetaObject4CallEiPPv@Base 5.9.0+git20150515.1342
 _ZN14PastebinPlugin11qt_metacastEPKc@Base 5.9.0+git20150515.1342
 _ZN14PastebinPlugin16staticMetaObjectE@Base 5.9.0+git20150515.1342
 _ZN14PastebinPluginD0Ev@Base 5.9.0+git20150515.1342
 _ZN14PastebinPluginD1Ev@Base 5.9.0+git20150515.1342
 _ZN14PastebinPluginD2Ev@Base 5.9.0+git20150515.1342
 _ZNK14PastebinPlugin10metaObjectEv@Base 5.9.0+git20150515.1342
 _ZTI14PastebinPlugin@Base 5.9.0+git20150515.1342
 _ZTS14PastebinPlugin@Base 5.9.0+git20150515.1342
 _ZTV14PastebinPlugin@Base 5.9.0+git20150515.1342
 kde_plugin_version@Base 5.9.0+git20150515.1342
 qt_plugin_instance@Base 5.9.0+git20150515.1342
 qt_plugin_query_metadata@Base 5.9.0+git20150515.1342
reviewboardplugin.so libkf5purpose5 #MINVER#
 _ZN14KPluginFactory14createInstanceI17ReviewBoardPlugin7QObjectEEPS2_P7QWidgetS3_RK5QListI8QVariantE@Base 5.9.0+git20150515.1342
 _ZN17ReviewBoardPlugin11qt_metacallEN11QMetaObject4CallEiPPv@Base 5.9.0+git20150515.1342
 _ZN17ReviewBoardPlugin11qt_metacastEPKc@Base 5.9.0+git20150515.1342
 _ZN17ReviewBoardPlugin16staticMetaObjectE@Base 5.9.0+git20150515.1342
 _ZNK17ReviewBoardPlugin10metaObjectEv@Base 5.9.0+git20150515.1342
 _ZTI17ReviewBoardPlugin@Base 5.9.0+git20150515.1342
 _ZTS17ReviewBoardPlugin@Base 5.9.0+git20150515.1342
 _ZTV17ReviewBoardPlugin@Base 5.9.0+git20150515.1342
 qt_plugin_instance@Base 5.9.0+git20150515.1342
 qt_plugin_query_metadata@Base 5.9.0+git20150515.1342
saveasplugin.so libkf5purpose5 #MINVER#
 _ZN12SaveAsPlugin11qt_metacallEN11QMetaObject4CallEiPPv@Base 5.9.0+git20150515.1342
 _ZN12SaveAsPlugin11qt_metacastEPKc@Base 5.9.0+git20150515.1342
 _ZN12SaveAsPlugin16staticMetaObjectE@Base 5.9.0+git20150515.1342
 _ZN12SaveAsPluginD0Ev@Base 5.9.0+git20150515.1342
 _ZN12SaveAsPluginD1Ev@Base 5.9.0+git20150515.1342
 _ZN12SaveAsPluginD2Ev@Base 5.9.0+git20150515.1342
 _ZN14KPluginFactory14createInstanceI12SaveAsPlugin7QObjectEEPS2_P7QWidgetS3_RK5QListI8QVariantE@Base 5.9.0+git20150515.1342
 _ZNK12SaveAsPlugin10metaObjectEv@Base 5.9.0+git20150515.1342
 _ZTI12SaveAsPlugin@Base 5.9.0+git20150515.1342
 _ZTS12SaveAsPlugin@Base 5.9.0+git20150515.1342
 _ZTV12SaveAsPlugin@Base 5.9.0+git20150515.1342
 kde_plugin_version@Base 5.9.0+git20150515.1342
 qt_plugin_instance@Base 5.9.0+git20150515.1342
 qt_plugin_query_metadata@Base 5.9.0+git20150515.1342
youtubeplugin.so libkf5purpose5 #MINVER#
 kde_plugin_version@Base 5.9.0+git20150515.1342
 qt_plugin_instance@Base 5.9.0+git20150515.1342
 qt_plugin_query_metadata@Base 5.9.0+git20150515.1342
